	.file	"main.c"
	.text
Ltext0:
	.cfi_sections	.debug_frame
	.def	___main;	.scl	2;	.type	32;	.endef
	.section .rdata,"dr"
	.align 4
LC3:
	.ascii "(taxrate is %.3f) The tax on %.2f is %.2f, so the grand total is %.2f.\12\0"
	.align 4
LC4:
	.ascii "(TAXRATE_DEFINED is %.3f) The tax on %.2f is %.2f, so the grand total is %.2f.\12\0"
	.align 4
LC5:
	.ascii "(TAXRATE_CONST is %.3f) The tax on %.2f is %.2f, so the grand total is %.2f.\12\0"
LC7:
	.ascii "%f\0"
	.text
	.globl	_main
	.def	_main;	.scl	2;	.type	32;	.endef
_main:
LFB6:
	.file 1 "C:/BitwiseCourses/COURSES/LearnC/SOURCE-CODE/CProjects/Step03/03_Calc/main.c"
	.loc 1 4 0
	.cfi_startproc
	pushl	%ebp
LCFI0:
	.cfi_def_cfa_offset 8
	.cfi_offset 5, -8
	movl	%esp, %ebp
LCFI1:
	.cfi_def_cfa_register 5
	andl	$-16, %esp
	subl	$96, %esp
	.loc 1 4 0
	call	___main
	.loc 1 6 0
	movl	$1717986918, %eax
	movl	$1069966950, %edx
	movl	%eax, 88(%esp)
	movl	%edx, 92(%esp)
	.loc 1 14 0
	movl	$1717986918, %eax
	movl	$1069966950, %edx
	movl	%eax, 80(%esp)
	movl	%edx, 84(%esp)
	.loc 1 15 0
	movl	$0, %eax
	movl	$1080623104, %edx
	movl	%eax, 72(%esp)
	movl	%edx, 76(%esp)
	.loc 1 16 0
	movl	$-1717986918, %eax
	movl	$1070176665, %edx
	movl	%eax, 80(%esp)
	movl	%edx, 84(%esp)
	.loc 1 17 0
	fldl	72(%esp)
	fmull	80(%esp)
	fstpl	64(%esp)
	.loc 1 18 0
	fldl	72(%esp)
	faddl	64(%esp)
	fstpl	56(%esp)
	.loc 1 20 0
	movl	56(%esp), %eax
	movl	60(%esp), %edx
	movl	%eax, 28(%esp)
	movl	%edx, 32(%esp)
	movl	64(%esp), %eax
	movl	68(%esp), %edx
	movl	%eax, 20(%esp)
	movl	%edx, 24(%esp)
	movl	72(%esp), %eax
	movl	76(%esp), %edx
	movl	%eax, 12(%esp)
	movl	%edx, 16(%esp)
	movl	80(%esp), %eax
	movl	84(%esp), %edx
	movl	%eax, 4(%esp)
	movl	%edx, 8(%esp)
	movl	$LC3, (%esp)
	call	_printf
	.loc 1 22 0
	movl	$0, %eax
	movl	$1080623104, %edx
	movl	%eax, 72(%esp)
	movl	%edx, 76(%esp)
	.loc 1 24 0
	fldl	72(%esp)
	fldl	LC2
	fmulp	%st, %st(1)
	fstpl	64(%esp)
	.loc 1 25 0
	fldl	72(%esp)
	faddl	64(%esp)
	fstpl	56(%esp)
	.loc 1 27 0
	movl	56(%esp), %eax
	movl	60(%esp), %edx
	movl	%eax, 28(%esp)
	movl	%edx, 32(%esp)
	movl	64(%esp), %eax
	movl	68(%esp), %edx
	movl	%eax, 20(%esp)
	movl	%edx, 24(%esp)
	movl	72(%esp), %eax
	movl	76(%esp), %edx
	movl	%eax, 12(%esp)
	movl	%edx, 16(%esp)
	movl	$-1717986918, %eax
	movl	$1070176665, %edx
	movl	%eax, 4(%esp)
	movl	%edx, 8(%esp)
	movl	$LC4, (%esp)
	call	_printf
	.loc 1 30 0
	movl	$0, %eax
	movl	$1080623104, %edx
	movl	%eax, 72(%esp)
	movl	%edx, 76(%esp)
	.loc 1 32 0
	fldl	72(%esp)
	fmull	88(%esp)
	fstpl	64(%esp)
	.loc 1 33 0
	fldl	72(%esp)
	faddl	64(%esp)
	fstpl	56(%esp)
	.loc 1 35 0
	movl	56(%esp), %eax
	movl	60(%esp), %edx
	movl	%eax, 28(%esp)
	movl	%edx, 32(%esp)
	movl	64(%esp), %eax
	movl	68(%esp), %edx
	movl	%eax, 20(%esp)
	movl	%edx, 24(%esp)
	movl	72(%esp), %eax
	movl	76(%esp), %edx
	movl	%eax, 12(%esp)
	movl	%edx, 16(%esp)
	movl	88(%esp), %eax
	movl	92(%esp), %edx
	movl	%eax, 4(%esp)
	movl	%edx, 8(%esp)
	movl	$LC5, (%esp)
	call	_printf
	.loc 1 37 0
	movl	$1413754136, %eax
	movl	$1074340347, %edx
	movl	%eax, 4(%esp)
	movl	%edx, 8(%esp)
	movl	$LC7, (%esp)
	call	_printf
	.loc 1 38 0
	movl	$0, %eax
	.loc 1 39 0
	leave
LCFI2:
	.cfi_restore 5
	.cfi_def_cfa 4, 4
	ret
	.cfi_endproc
LFE6:
	.section .rdata,"dr"
	.align 8
LC2:
	.long	-1717986918
	.long	1070176665
	.text
Letext0:
	.file 2 "c:/mingw-4.7.1/bin/../lib/gcc/mingw32/4.7.1/../../../../include/stdio.h"